; Function Attrs: mustprogress nounwind uwtable
define void @_ZN13ShadowMappingD2Ev(ptr noundef nonnull align 8 dereferenceable(44) %0) unnamed_addr #0 align 2 personality ptr @__gxx_personality_v0 {
  store ptr getelementptr inbounds ({ [8 x ptr] }, ptr @_ZTV13ShadowMapping, i64 0, i32 0, i64 2), ptr %0, align 8
  %2 = load ptr, ptr @__glewDetachShader, align 8
  %3 = getelementptr inbounds i8, ptr %0, i64 32
  %4 = load i32, ptr %3, align 8
  %5 = getelementptr inbounds i8, ptr %0, i64 36
  %6 = load i32, ptr %5, align 4
  invoke void %2(i32 noundef %4, i32 noundef %6)
          to label %7 unwind label %27

7:                                                ; preds = %1
  %8 = load ptr, ptr @__glewDetachShader, align 8
  %9 = load i32, ptr %3, align 8
  %10 = getelementptr inbounds i8, ptr %0, i64 40
  %11 = load i32, ptr %10, align 8
  invoke void %8(i32 noundef %9, i32 noundef %11)
          to label %12 unwind label %27

12:                                               ; preds = %7
  %13 = load ptr, ptr @__glewDeleteShader, align 8
  %14 = load i32, ptr %5, align 4
  invoke void %13(i32 noundef %14)
          to label %15 unwind label %27

15:                                               ; preds = %12
  %16 = load ptr, ptr @__glewDeleteShader, align 8
  %17 = load i32, ptr %10, align 8
  invoke void %16(i32 noundef %17)
          to label %18 unwind label %27

18:                                               ; preds = %15
  %19 = load ptr, ptr @__glewDeleteProgram, align 8
  %20 = load i32, ptr %3, align 8
  invoke void %19(i32 noundef %20)
          to label %21 unwind label %27

21:                                               ; preds = %18
  %22 = getelementptr inbounds i8, ptr %0, i64 28
  invoke void @glDeleteTextures(i32 noundef 1, ptr noundef nonnull %22)
          to label %23 unwind label %27

23:                                               ; preds = %21
  %24 = load ptr, ptr @__glewDeleteFramebuffers, align 8
  %25 = getelementptr inbounds i8, ptr %0, i64 20
  invoke void %24(i32 noundef 1, ptr noundef nonnull %25)
          to label %26 unwind label %27

26:                                               ; preds = %23
  ret void

27:                                               ; preds = %23, %21, %18, %15, %12, %7, %1
  %28 = landingpad { ptr, i32 }
          catch ptr null
  %29 = extractvalue { ptr, i32 } %28, 0
  tail call void @__clang_call_terminate(ptr %29) #26
  unreachable
}